target datalayout = "e-m:e-p270:32:32-p271:32:32-p272:64:64-i64:64-i128:128-f80:128-n8:16:32:64-S128"
target triple = "x86_64-pc-linux-gnu"

%"struct.duckdb::MetadataHandle" = type { %"struct.duckdb::MetadataPointer", %"class.duckdb::BufferHandle" }
%"struct.duckdb::MetadataPointer" = type { i64 }
%"class.duckdb::BufferHandle" = type { %"class.duckdb::shared_ptr", %"class.duckdb::optional_ptr" }
%"class.duckdb::shared_ptr" = type { %"class.std::shared_ptr" }
%"class.std::shared_ptr" = type { %"class.std::__shared_ptr" }
%"class.std::__shared_ptr" = type { ptr, %"class.std::__shared_count" }
%"class.std::__shared_count" = type { ptr }
%"class.duckdb::optional_ptr" = type { ptr }
%"struct.duckdb::MetaBlockPointer" = type { i64, i32, i32 }
%"class.duckdb::optional_ptr.85" = type { ptr }
%"class.duckdb::MetadataReader" = type { %"class.duckdb::ReadStream", ptr, i32, %"struct.duckdb::MetadataHandle", %"struct.duckdb::MetadataPointer", i8, %"class.duckdb::optional_ptr.85", i64, i64, i64, i64 }
%"class.duckdb::ReadStream" = type { ptr }

; Function Attrs: mustprogress uwtable
define i64 @_ZN6duckdb14MetadataReader15FromDiskPointerENS_16MetaBlockPointerE(ptr noundef nonnull align 8 dereferenceable(112) %0, i64 %1, i64 %2) #2 align 2 {
  %4 = alloca %"struct.duckdb::MetadataPointer", align 8
  %5 = alloca %"struct.duckdb::MetaBlockPointer", align 8
  %6 = alloca ptr, align 8
  %7 = alloca %"struct.duckdb::MetaBlockPointer", align 8
  %8 = alloca %"struct.duckdb::MetaBlockPointer", align 8
  %9 = getelementptr inbounds nuw { i64, i64 }, ptr %5, i32 0, i32 0
  store i64 %1, ptr %9, align 8
  %10 = getelementptr inbounds nuw { i64, i64 }, ptr %5, i32 0, i32 1
  store i64 %2, ptr %10, align 8
  store ptr %0, ptr %6, align 8, !tbaa !202
  %11 = load ptr, ptr %6, align 8
  %12 = getelementptr inbounds nuw %"class.duckdb::MetadataReader", ptr %11, i32 0, i32 2
  %13 = load i32, ptr %12, align 8, !tbaa !206
  %14 = icmp eq i32 %13, 0
  br i1 %14, label %15, label %24

15:                                               ; preds = %3
  %16 = getelementptr inbounds nuw %"class.duckdb::MetadataReader", ptr %11, i32 0, i32 1
  %17 = load ptr, ptr %16, align 8, !tbaa !220
  call void @llvm.memcpy.p0.p0.i64(ptr align 8 %7, ptr align 8 %5, i64 16, i1 false), !tbaa.struct !131
  %18 = getelementptr inbounds nuw { i64, i64 }, ptr %7, i32 0, i32 0
  %19 = load i64, ptr %18, align 8
  %20 = getelementptr inbounds nuw { i64, i64 }, ptr %7, i32 0, i32 1
  %21 = load i64, ptr %20, align 8
  %22 = call i64 @_ZN6duckdb15MetadataManager15FromDiskPointerENS_16MetaBlockPointerE(ptr noundef nonnull align 8 dereferenceable(128) %17, i64 %19, i64 %21)
  %23 = getelementptr inbounds nuw %"struct.duckdb::MetadataPointer", ptr %4, i32 0, i32 0
  store i64 %22, ptr %23, align 8
  br label %33

24:                                               ; preds = %3
  %25 = getelementptr inbounds nuw %"class.duckdb::MetadataReader", ptr %11, i32 0, i32 1
  %26 = load ptr, ptr %25, align 8, !tbaa !220
  call void @llvm.memcpy.p0.p0.i64(ptr align 8 %8, ptr align 8 %5, i64 16, i1 false), !tbaa.struct !131
  %27 = getelementptr inbounds nuw { i64, i64 }, ptr %8, i32 0, i32 0
  %28 = load i64, ptr %27, align 8
  %29 = getelementptr inbounds nuw { i64, i64 }, ptr %8, i32 0, i32 1
  %30 = load i64, ptr %29, align 8
  %31 = call i64 @_ZN6duckdb15MetadataManager19RegisterDiskPointerENS_16MetaBlockPointerE(ptr noundef nonnull align 8 dereferenceable(128) %26, i64 %28, i64 %30)
  %32 = getelementptr inbounds nuw %"struct.duckdb::MetadataPointer", ptr %4, i32 0, i32 0
  store i64 %31, ptr %32, align 8
  br label %33

33:                                               ; preds = %24, %15
  %34 = getelementptr inbounds nuw %"struct.duckdb::MetadataPointer", ptr %4, i32 0, i32 0
  %35 = load i64, ptr %34, align 8
  ret i64 %35
}