; Function Attrs: mustprogress uwtable
define i64 @_ZN6duckdb14MetadataReader15FromDiskPointerENS_16MetaBlockPointerE(ptr noundef nonnull readonly align 8 captures(none) dereferenceable(112) %0, i64 returned %1, i64 %2) local_unnamed_addr #2 align 2 {
  %4 = getelementptr inbounds nuw i8, ptr %0, i64 16
  %5 = load i32, ptr %4, align 8, !tbaa !180
  %6 = icmp eq i32 %5, 0
  %7 = getelementptr inbounds nuw i8, ptr %0, i64 8
  %8 = load ptr, ptr %7, align 8, !tbaa !190
  br i1 %6, label %9, label %11

9:                                                ; preds = %3
  %10 = tail call i64 @_ZN6duckdb15MetadataManager15FromDiskPointerENS_16MetaBlockPointerE(ptr noundef nonnull align 8 dereferenceable(128) %8, i64 %1, i64 poison)
  br label %13

11:                                               ; preds = %3
  %12 = tail call i64 @_ZN6duckdb15MetadataManager19RegisterDiskPointerENS_16MetaBlockPointerE(ptr noundef nonnull align 8 dereferenceable(128) %8, i64 %1, i64 poison)
  br label %13

13:                                               ; preds = %11, %9
  ret i64 %1
}